; Function Attrs: mustprogress uwtable
define noundef signext i8 @_ZNK6icu_7513UnicodeString23doCompareCodePointOrderEiiPKDsii(ptr noundef nonnull align 8 dereferenceable(64) %this, i32 noundef %start, i32 noundef %length, ptr noundef %srcChars, i32 noundef %srcStart, i32 noundef %srcLength) local_unnamed_addr #5 align 2 {
entry:
  %fUnion.i = getelementptr inbounds i8, ptr %this, i64 8
  %0 = load i16, ptr %fUnion.i, align 8
  %conv2.i11 = and i16 %0, 1
  %tobool.not = icmp eq i16 %conv2.i11, 0
  br i1 %tobool.not, label %if.end, label %return

if.end:                                           ; preds = %entry
  %cmp.i.i.i = icmp slt i16 %0, 0
  %1 = ashr i16 %0, 5
  %shr.i.i.i = sext i16 %1 to i32
  %fLength.i.i = getelementptr inbounds i8, ptr %this, i64 12
  %2 = load i32, ptr %fLength.i.i, align 4
  %cond.i.i = select i1 %cmp.i.i.i, i32 %2, i32 %shr.i.i.i
  %cmp.i = icmp slt i32 %start, 0
  %spec.select8 = tail call i32 @llvm.smin.i32(i32 %cond.i.i, i32 %start)
  %start.addr.0 = select i1 %cmp.i, i32 0, i32 %spec.select8
  %cmp5.i = icmp slt i32 %length, 0
  %sub.i = sub nsw i32 %cond.i.i, %start.addr.0
  %spec.select10 = tail call i32 @llvm.smin.i32(i32 %sub.i, i32 %length)
  %length.addr.0 = select i1 %cmp5.i, i32 0, i32 %spec.select10
  %cmp = icmp eq ptr %srcChars, null
  %3 = sext i32 %srcStart to i64
  %spec.select4 = select i1 %cmp, i32 0, i32 %srcLength
  %4 = and i16 %0, 2
  %tobool.not.i = icmp eq i16 %4, 0
  %fBuffer.i = getelementptr inbounds i8, ptr %this, i64 10
  %fArray.i = getelementptr inbounds i8, ptr %this, i64 24
  %5 = load ptr, ptr %fArray.i, align 8
  %cond.i = select i1 %tobool.not.i, ptr %5, ptr %fBuffer.i
  %idx.ext = sext i32 %start.addr.0 to i64
  %add.ptr = getelementptr inbounds i16, ptr %cond.i, i64 %idx.ext
  %idx.ext6 = select i1 %cmp, i64 0, i64 %3
  %add.ptr7 = getelementptr inbounds i16, ptr %srcChars, i64 %idx.ext6
  %cond = select i1 %cmp, ptr null, ptr %add.ptr7
  %call8 = tail call i32 @uprv_strCompare_75(ptr noundef %add.ptr, i32 noundef %length.addr.0, ptr noundef %cond, i32 noundef %spec.select4, i8 noundef signext 0, i8 noundef signext 1)
  %cmp9.not = icmp eq i32 %call8, 0
  br i1 %cmp9.not, label %return, label %if.then10

if.then10:                                        ; preds = %if.end
  %shr = lshr i32 %call8, 15
  %6 = trunc i32 %shr to i8
  %conv = or i8 %6, 1
  br label %return

return:                                           ; preds = %if.end, %entry, %if.then10
  %retval.0 = phi i8 [ %conv, %if.then10 ], [ -1, %entry ], [ 0, %if.end ]
  ret i8 %retval.0
}